target datalayout = "e-m:e-p270:32:32-p271:32:32-p272:64:64-i64:64-i128:128-f80:128-n8:16:32:64-S128"
target triple = "x86_64-pc-linux-gnu"

@l_Lake_instOrdBuildType = global ptr null, align 8

; Function Attrs: inlinehint nounwind uwtable
define internal ptr @lean_box(i64 noundef %0) #1 {
  %2 = alloca i64, align 8
  store i64 %0, ptr %2, align 8, !tbaa !8
  %3 = load i64, ptr %2, align 8, !tbaa !8
  %4 = shl i64 %3, 1
  %5 = or i64 %4, 1
  %6 = inttoptr i64 %5 to ptr
  ret ptr %6
}

; Function Attrs: nounwind uwtable
define zeroext i8 @l_Lake_instMinBuildType(i8 noundef zeroext %0, i8 noundef zeroext %1) #2 {
  %3 = alloca i8, align 1
  %4 = alloca i8, align 1
  %5 = alloca i8, align 1
  %6 = alloca ptr, align 8
  %7 = alloca ptr, align 8
  %8 = alloca ptr, align 8
  %9 = alloca i8, align 1
  %10 = alloca i32, align 4
  store i8 %0, ptr %4, align 1, !tbaa !12
  store i8 %1, ptr %5, align 1, !tbaa !12
  br label %11

11:                                               ; preds = %2
  call void @llvm.lifetime.start.p0(i64 8, ptr %6) #7
  call void @llvm.lifetime.start.p0(i64 8, ptr %7) #7
  call void @llvm.lifetime.start.p0(i64 8, ptr %8) #7
  call void @llvm.lifetime.start.p0(i64 1, ptr %9) #7
  %12 = load ptr, ptr @l_Lake_instOrdBuildType, align 8, !tbaa !4
  store ptr %12, ptr %6, align 8, !tbaa !4
  %13 = load i8, ptr %4, align 1, !tbaa !12
  %14 = zext i8 %13 to i64
  %15 = call ptr @lean_box(i64 noundef %14)
  store ptr %15, ptr %7, align 8, !tbaa !4
  %16 = load i8, ptr %5, align 1, !tbaa !12
  %17 = zext i8 %16 to i64
  %18 = call ptr @lean_box(i64 noundef %17)
  store ptr %18, ptr %8, align 8, !tbaa !4
  %19 = load ptr, ptr %6, align 8, !tbaa !4
  %20 = load ptr, ptr %7, align 8, !tbaa !4
  %21 = load ptr, ptr %8, align 8, !tbaa !4
  %22 = call zeroext i8 @l_Ord_instDecidableRelLe___rarg(ptr noundef %19, ptr noundef %20, ptr noundef %21)
  store i8 %22, ptr %9, align 1, !tbaa !12
  %23 = load i8, ptr %9, align 1, !tbaa !12
  %24 = zext i8 %23 to i32
  %25 = icmp eq i32 %24, 0
  br i1 %25, label %26, label %28

26:                                               ; preds = %11
  %27 = load i8, ptr %5, align 1, !tbaa !12
  store i8 %27, ptr %3, align 1
  store i32 1, ptr %10, align 4
  br label %30

28:                                               ; preds = %11
  %29 = load i8, ptr %4, align 1, !tbaa !12
  store i8 %29, ptr %3, align 1
  store i32 1, ptr %10, align 4
  br label %30

30:                                               ; preds = %28, %26
  call void @llvm.lifetime.end.p0(i64 1, ptr %9) #7
  call void @llvm.lifetime.end.p0(i64 8, ptr %8) #7
  call void @llvm.lifetime.end.p0(i64 8, ptr %7) #7
  call void @llvm.lifetime.end.p0(i64 8, ptr %6) #7
  %31 = load i8, ptr %3, align 1
  ret i8 %31
}