; Function Attrs: nounwind uwtable
define zeroext i8 @l_Lake_instMinBuildType(i8 noundef zeroext %0, i8 noundef zeroext %1) local_unnamed_addr #1 {
  %3 = load ptr, ptr @l_Lake_instOrdBuildType, align 8, !tbaa !10
  %4 = zext i8 %0 to i64
  %5 = shl nuw nsw i64 %4, 1
  %6 = or disjoint i64 %5, 1
  %7 = inttoptr i64 %6 to ptr
  %8 = zext i8 %1 to i64
  %9 = shl nuw nsw i64 %8, 1
  %10 = or disjoint i64 %9, 1
  %11 = inttoptr i64 %10 to ptr
  %12 = tail call zeroext i8 @l_Ord_instDecidableRelLe___rarg(ptr noundef %3, ptr noundef nonnull %7, ptr noundef nonnull %11) #8
  %13 = icmp eq i8 %12, 0
  %. = select i1 %13, i8 %1, i8 %0
  ret i8 %.
}